(dp0
S'a'
p1
S'b'
p2
sS'aa'
p3
S'bb'
p4
sS'hemo_small'
p5
S'caleb'
p6
sNNsS''
p7
g7
sS'hemm'
p8
S'caleb'
p9
sS'caleb'
p10
S'pass'
p11
sS'ho'
p12
S'caleb'
p13
sS'hem'
p14
S'hello'
p15
sS'new'
p16
S'caleb'
p17
sS'he'
p18
S'caleb'
p19
sS'hemo'
p20
S'caleb'
p21
s.